target datalayout = "e-m:e-p270:32:32-p271:32:32-p272:64:64-i64:64-i128:128-f80:128-n8:16:32:64-S128"
target triple = "x86_64-pc-linux-gnu"

%class.Handle = type { ptr }
%class.ThreadShadow = type <{ ptr, ptr, ptr, i32, [4 x i8] }>
%class.ExceptionMark = type { ptr }
%class.JavaValue = type { i8, %"union.JavaValue::JavaCallValue" }
%"union.JavaValue::JavaCallValue" = type { double }
%class.JavaCallArguments = type { [9 x i64], [9 x i8], ptr, ptr, i32, i32, i8, %class.Handle }

@_ZN6Symbol11_vm_symbolsE = external global [0 x ptr], align 8
@_ZN9vmClasses8_klassesE = external global [0 x ptr], align 8

; Function Attrs: mustprogress nounwind uwtable
define linkonce_odr hidden noundef ptr @_ZN9vmClasses11check_klassEP13InstanceKlass(ptr noundef %0) #1 comdat align 2 {
  %2 = alloca ptr, align 8
  store ptr %0, ptr %2, align 8
  %3 = load ptr, ptr %2, align 8
  ret ptr %3
}

; Function Attrs: mustprogress nounwind uwtable
define linkonce_odr hidden void @_ZN8JNITypes7put_intEiPlRi(i32 noundef %0, ptr noundef %1, ptr noundef nonnull align 4 dereferenceable(4) %2) #1 comdat align 2 {
  %4 = alloca i32, align 4
  %5 = alloca ptr, align 8
  %6 = alloca ptr, align 8
  store i32 %0, ptr %4, align 4
  store ptr %1, ptr %5, align 8
  store ptr %2, ptr %6, align 8
  %7 = load i32, ptr %4, align 4
  %8 = load ptr, ptr %5, align 8
  %9 = load ptr, ptr %6, align 8
  %10 = load i32, ptr %9, align 4
  %11 = add nsw i32 %10, 1
  store i32 %11, ptr %9, align 4
  %12 = sext i32 %10 to i64
  %13 = getelementptr inbounds i64, ptr %8, i64 %12
  store i32 %7, ptr %13, align 4
  ret void
}

; Function Attrs: mustprogress nounwind uwtable
define linkonce_odr hidden void @_ZN17JavaCallArguments10initializeEv(ptr noundef nonnull align 8 dereferenceable(128) %0) #1 comdat align 2 {
  %2 = alloca ptr, align 8
  store ptr %0, ptr %2, align 8
  %3 = load ptr, ptr %2, align 8
  %4 = getelementptr inbounds %class.JavaCallArguments, ptr %3, i32 0, i32 0
  %5 = getelementptr inbounds [9 x i64], ptr %4, i64 0, i64 1
  %6 = getelementptr inbounds %class.JavaCallArguments, ptr %3, i32 0, i32 2
  store ptr %5, ptr %6, align 8
  %7 = getelementptr inbounds %class.JavaCallArguments, ptr %3, i32 0, i32 1
  %8 = getelementptr inbounds [9 x i8], ptr %7, i64 0, i64 1
  %9 = getelementptr inbounds %class.JavaCallArguments, ptr %3, i32 0, i32 3
  store ptr %8, ptr %9, align 8
  %10 = getelementptr inbounds %class.JavaCallArguments, ptr %3, i32 0, i32 5
  store i32 8, ptr %10, align 4
  %11 = getelementptr inbounds %class.JavaCallArguments, ptr %3, i32 0, i32 4
  store i32 0, ptr %11, align 8
  %12 = getelementptr inbounds %class.JavaCallArguments, ptr %3, i32 0, i32 6
  store i8 0, ptr %12, align 8
  ret void
}

; Function Attrs: mustprogress nounwind uwtable
define linkonce_odr hidden void @_ZN6HandleC2Ev(ptr noundef nonnull align 8 dereferenceable(8) %0) unnamed_addr #1 comdat align 2 {
  %2 = alloca ptr, align 8
  store ptr %0, ptr %2, align 8
  %3 = load ptr, ptr %2, align 8
  %4 = getelementptr inbounds %class.Handle, ptr %3, i32 0, i32 0
  store ptr null, ptr %4, align 8
  ret void
}

; Function Attrs: mustprogress nounwind uwtable
define linkonce_odr hidden noundef zeroext i8 @_ZNK9JavaValue12get_jbooleanEv(ptr noundef nonnull align 8 dereferenceable(16) %0) #1 comdat align 2 {
  %2 = alloca ptr, align 8
  store ptr %0, ptr %2, align 8
  %3 = load ptr, ptr %2, align 8
  %4 = getelementptr inbounds %class.JavaValue, ptr %3, i32 0, i32 1
  %5 = load i32, ptr %4, align 8
  %6 = trunc i32 %5 to i8
  ret i8 %6
}

; Function Attrs: mustprogress nounwind uwtable
define linkonce_odr hidden noundef zeroext i1 @_ZNK12ThreadShadow21has_pending_exceptionEv(ptr noundef nonnull align 8 dereferenceable(28) %0) #1 comdat align 2 {
  %2 = alloca ptr, align 8
  store ptr %0, ptr %2, align 8
  %3 = load ptr, ptr %2, align 8
  %4 = getelementptr inbounds %class.ThreadShadow, ptr %3, i32 0, i32 1
  %5 = load ptr, ptr %4, align 8
  %6 = icmp ne ptr %5, null
  ret i1 %6
}

; Function Attrs: mustprogress nounwind uwtable
define linkonce_odr hidden noundef ptr @_ZN9vmSymbols26isJavaIdentifierStart_nameEv() #1 comdat align 2 {
  %1 = load ptr, ptr getelementptr inbounds ([0 x ptr], ptr @_ZN6Symbol11_vm_symbolsE, i64 0, i64 454), align 8
  ret ptr %1
}

; Function Attrs: mustprogress nounwind uwtable
define linkonce_odr hidden noundef ptr @_ZN9vmSymbols18int_bool_signatureEv() #1 comdat align 2 {
  %1 = load ptr, ptr getelementptr inbounds ([0 x ptr], ptr @_ZN6Symbol11_vm_symbolsE, i64 0, i64 858), align 8
  ret ptr %1
}

; Function Attrs: mustprogress nounwind uwtable
define linkonce_odr hidden noundef ptr @_ZN9vmSymbols25isJavaIdentifierPart_nameEv() #1 comdat align 2 {
  %1 = load ptr, ptr getelementptr inbounds ([0 x ptr], ptr @_ZN6Symbol11_vm_symbolsE, i64 0, i64 455), align 8
  ret ptr %1
}

; Function Attrs: mustprogress nounwind uwtable
define linkonce_odr hidden noundef ptr @_ZN9vmClasses15Character_klassEv() #1 comdat align 2 {
  %1 = load ptr, ptr getelementptr inbounds ([0 x ptr], ptr @_ZN9vmClasses8_klassesE, i64 0, i64 102), align 8
  %2 = call noundef ptr @_ZN9vmClasses11check_klassEP13InstanceKlass(ptr noundef %1)
  ret ptr %2
}

; Function Attrs: mustprogress nounwind uwtable
define linkonce_odr hidden void @_ZN17JavaCallArguments8push_intEi(ptr noundef nonnull align 8 dereferenceable(128) %0, i32 noundef %1) #1 comdat align 2 {
  %3 = alloca ptr, align 8
  %4 = alloca i32, align 4
  store ptr %0, ptr %3, align 8
  store i32 %1, ptr %4, align 4
  %5 = load ptr, ptr %3, align 8
  %6 = getelementptr inbounds %class.JavaCallArguments, ptr %5, i32 0, i32 3
  %7 = load ptr, ptr %6, align 8
  %8 = getelementptr inbounds %class.JavaCallArguments, ptr %5, i32 0, i32 4
  %9 = load i32, ptr %8, align 8
  %10 = sext i32 %9 to i64
  %11 = getelementptr inbounds i8, ptr %7, i64 %10
  store i8 0, ptr %11, align 1
  %12 = load i32, ptr %4, align 4
  %13 = getelementptr inbounds %class.JavaCallArguments, ptr %5, i32 0, i32 2
  %14 = load ptr, ptr %13, align 8
  %15 = getelementptr inbounds %class.JavaCallArguments, ptr %5, i32 0, i32 4
  call void @_ZN8JNITypes7put_intEiPlRi(i32 noundef %12, ptr noundef %14, ptr noundef nonnull align 4 dereferenceable(4) %15)
  ret void
}

; Function Attrs: mustprogress nounwind uwtable
define linkonce_odr hidden void @_ZN17JavaCallArgumentsC2Ev(ptr noundef nonnull align 8 dereferenceable(128) %0) unnamed_addr #1 comdat align 2 {
  %2 = alloca ptr, align 8
  store ptr %0, ptr %2, align 8
  %3 = load ptr, ptr %2, align 8
  %4 = getelementptr inbounds %class.JavaCallArguments, ptr %3, i32 0, i32 7
  call void @_ZN6HandleC2Ev(ptr noundef nonnull align 8 dereferenceable(8) %4)
  call void @_ZN17JavaCallArguments10initializeEv(ptr noundef nonnull align 8 dereferenceable(128) %3)
  ret void
}

; Function Attrs: mustprogress nounwind uwtable
define linkonce_odr hidden void @_ZN9JavaValueC2E9BasicType(ptr noundef nonnull align 8 dereferenceable(16) %0, i8 noundef zeroext %1) unnamed_addr #1 comdat align 2 {
  %3 = alloca ptr, align 8
  %4 = alloca i8, align 1
  store ptr %0, ptr %3, align 8
  store i8 %1, ptr %4, align 1
  %5 = load ptr, ptr %3, align 8
  %6 = load i8, ptr %4, align 1
  %7 = getelementptr inbounds %class.JavaValue, ptr %5, i32 0, i32 0
  store i8 %6, ptr %7, align 8
  ret void
}

; Function Attrs: mustprogress nounwind uwtable
define linkonce_odr hidden noundef ptr @_ZN13ExceptionMark6threadEv(ptr noundef nonnull align 8 dereferenceable(8) %0) #1 comdat align 2 {
  %2 = alloca ptr, align 8
  store ptr %0, ptr %2, align 8
  %3 = load ptr, ptr %2, align 8
  %4 = getelementptr inbounds %class.ExceptionMark, ptr %3, i32 0, i32 0
  %5 = load ptr, ptr %4, align 8
  ret ptr %5
}

; Function Attrs: mustprogress nounwind uwtable
define internal noundef ptr @_ZL20skip_over_field_namePKcbj(ptr noundef %0, i1 noundef zeroext %1, i32 noundef %2) #1 {
  %4 = alloca ptr, align 8
  %5 = alloca ptr, align 8
  %6 = alloca i8, align 1
  %7 = alloca i32, align 4
  %8 = alloca ptr, align 8
  %9 = alloca i8, align 1
  %10 = alloca i8, align 1
  %11 = alloca ptr, align 8
  %12 = alloca i16, align 2
  %13 = alloca i32, align 4
  %14 = alloca ptr, align 8
  %15 = alloca %class.ExceptionMark, align 8
  %16 = alloca ptr, align 8
  %17 = alloca %class.JavaValue, align 8
  %18 = alloca %class.JavaCallArguments, align 8
  %19 = alloca i32, align 4
  store ptr %0, ptr %5, align 8
  %20 = zext i1 %1 to i8
  store i8 %20, ptr %6, align 1
  store i32 %2, ptr %7, align 4
  store i8 0, ptr %9, align 1
  store i8 0, ptr %10, align 1
  %21 = load ptr, ptr %5, align 8
  store ptr %21, ptr %8, align 8
  br label %22

22:                                               ; preds = %127, %3
  %23 = load ptr, ptr %8, align 8
  %24 = load ptr, ptr %5, align 8
  %25 = load i32, ptr %7, align 4
  %26 = zext i32 %25 to i64
  %27 = getelementptr inbounds i8, ptr %24, i64 %26
  %28 = icmp ne ptr %23, %27
  br i1 %28, label %29, label %128

29:                                               ; preds = %22
  %30 = load ptr, ptr %8, align 8
  store ptr %30, ptr %11, align 8
  %31 = load ptr, ptr %8, align 8
  %32 = load i8, ptr %31, align 1
  %33 = sext i8 %32 to i16
  store i16 %33, ptr %12, align 2
  %34 = load i16, ptr %12, align 2
  %35 = zext i16 %34 to i32
  %36 = icmp slt i32 %35, 128
  br i1 %36, label %37, label %88

37:                                               ; preds = %29
  %38 = load ptr, ptr %8, align 8
  %39 = getelementptr inbounds i8, ptr %38, i32 1
  store ptr %39, ptr %8, align 8
  %40 = load i16, ptr %12, align 2
  %41 = zext i16 %40 to i32
  %42 = icmp sge i32 %41, 97
  br i1 %42, label %43, label %47

43:                                               ; preds = %37
  %44 = load i16, ptr %12, align 2
  %45 = zext i16 %44 to i32
  %46 = icmp sle i32 %45, 122
  br i1 %46, label %74, label %47

47:                                               ; preds = %43, %37
  %48 = load i16, ptr %12, align 2
  %49 = zext i16 %48 to i32
  %50 = icmp sge i32 %49, 65
  br i1 %50, label %51, label %55

51:                                               ; preds = %47
  %52 = load i16, ptr %12, align 2
  %53 = zext i16 %52 to i32
  %54 = icmp sle i32 %53, 90
  br i1 %54, label %74, label %55

55:                                               ; preds = %51, %47
  %56 = load i16, ptr %12, align 2
  %57 = zext i16 %56 to i32
  %58 = icmp eq i32 %57, 95
  br i1 %58, label %74, label %59

59:                                               ; preds = %55
  %60 = load i16, ptr %12, align 2
  %61 = zext i16 %60 to i32
  %62 = icmp eq i32 %61, 36
  br i1 %62, label %74, label %63

63:                                               ; preds = %59
  %64 = load i8, ptr %10, align 1
  %65 = icmp ne i8 %64, 0
  br i1 %65, label %66, label %75

66:                                               ; preds = %63
  %67 = load i16, ptr %12, align 2
  %68 = zext i16 %67 to i32
  %69 = icmp sge i32 %68, 48
  br i1 %69, label %70, label %75

70:                                               ; preds = %66
  %71 = load i16, ptr %12, align 2
  %72 = zext i16 %71 to i32
  %73 = icmp sle i32 %72, 57
  br i1 %73, label %74, label %75

74:                                               ; preds = %70, %59, %55, %51, %43
  store i8 0, ptr %9, align 1
  br label %127

75:                                               ; preds = %70, %66, %63
  %76 = load i8, ptr %6, align 1
  %77 = trunc i8 %76 to i1
  br i1 %77, label %78, label %87

78:                                               ; preds = %75
  %79 = load i16, ptr %12, align 2
  %80 = zext i16 %79 to i32
  %81 = icmp eq i32 %80, 47
  br i1 %81, label %82, label %87

82:                                               ; preds = %78
  %83 = load i8, ptr %9, align 1
  %84 = icmp ne i8 %83, 0
  br i1 %84, label %85, label %86

85:                                               ; preds = %82
  store ptr null, ptr %4, align 8
  br label %139

86:                                               ; preds = %82
  store i8 1, ptr %9, align 1
  br label %127

87:                                               ; preds = %78, %75
  br label %119

88:                                               ; preds = %29
  %89 = load ptr, ptr %8, align 8
  %90 = call noundef ptr @_ZN4UTF814next_characterEPKcPi(ptr noundef %89, ptr noundef %13)
  store ptr %90, ptr %14, align 8
  %91 = load ptr, ptr %14, align 8
  store ptr %91, ptr %8, align 8
  store i8 0, ptr %9, align 1
  call void @_ZN13ExceptionMarkC1Ev(ptr noundef nonnull align 8 dereferenceable(8) %15)
  %92 = call noundef ptr @_ZN13ExceptionMark6threadEv(ptr noundef nonnull align 8 dereferenceable(8) %15)
  store ptr %92, ptr %16, align 8
  call void @_ZN9JavaValueC2E9BasicType(ptr noundef nonnull align 8 dereferenceable(16) %17, i8 noundef zeroext 4)
  call void @_ZN17JavaCallArgumentsC2Ev(ptr noundef nonnull align 8 dereferenceable(128) %18)
  %93 = load i32, ptr %13, align 4
  call void @_ZN17JavaCallArguments8push_intEi(ptr noundef nonnull align 8 dereferenceable(128) %18, i32 noundef %93)
  %94 = load i8, ptr %10, align 1
  %95 = icmp ne i8 %94, 0
  br i1 %95, label %96, label %101

96:                                               ; preds = %88
  %97 = call noundef ptr @_ZN9vmClasses15Character_klassEv()
  %98 = call noundef ptr @_ZN9vmSymbols25isJavaIdentifierPart_nameEv()
  %99 = call noundef ptr @_ZN9vmSymbols18int_bool_signatureEv()
  %100 = load ptr, ptr %16, align 8
  call void @_ZN9JavaCalls11call_staticEP9JavaValueP5KlassP6SymbolS5_P17JavaCallArgumentsP10JavaThread(ptr noundef %17, ptr noundef %97, ptr noundef %98, ptr noundef %99, ptr noundef %18, ptr noundef %100)
  br label %106

101:                                              ; preds = %88
  %102 = call noundef ptr @_ZN9vmClasses15Character_klassEv()
  %103 = call noundef ptr @_ZN9vmSymbols26isJavaIdentifierStart_nameEv()
  %104 = call noundef ptr @_ZN9vmSymbols18int_bool_signatureEv()
  %105 = load ptr, ptr %16, align 8
  call void @_ZN9JavaCalls11call_staticEP9JavaValueP5KlassP6SymbolS5_P17JavaCallArgumentsP10JavaThread(ptr noundef %17, ptr noundef %102, ptr noundef %103, ptr noundef %104, ptr noundef %18, ptr noundef %105)
  br label %106

106:                                              ; preds = %101, %96
  %107 = load ptr, ptr %16, align 8
  %108 = call noundef zeroext i1 @_ZNK12ThreadShadow21has_pending_exceptionEv(ptr noundef nonnull align 8 dereferenceable(28) %107)
  br i1 %108, label %109, label %111

109:                                              ; preds = %106
  %110 = load ptr, ptr %16, align 8
  call void @_ZN12ThreadShadow23clear_pending_exceptionEv(ptr noundef nonnull align 8 dereferenceable(28) %110)
  store ptr null, ptr %4, align 8
  store i32 1, ptr %19, align 4
  br label %116

111:                                              ; preds = %106
  %112 = call noundef zeroext i8 @_ZNK9JavaValue12get_jbooleanEv(ptr noundef nonnull align 8 dereferenceable(16) %17)
  %113 = icmp ne i8 %112, 0
  br i1 %113, label %114, label %115

114:                                              ; preds = %111
  store i32 4, ptr %19, align 4
  br label %116

115:                                              ; preds = %111
  store i32 0, ptr %19, align 4
  br label %116

116:                                              ; preds = %115, %114, %109
  call void @_ZN13ExceptionMarkD1Ev(ptr noundef nonnull align 8 dereferenceable(8) %15) #11
  %117 = load i32, ptr %19, align 4
  switch i32 %117, label %141 [
    i32 0, label %118
    i32 1, label %139
    i32 4, label %127
  ]

118:                                              ; preds = %116
  br label %119

119:                                              ; preds = %118, %87
  %120 = load i8, ptr %10, align 1
  %121 = icmp ne i8 %120, 0
  br i1 %121, label %122, label %124

122:                                              ; preds = %119
  %123 = load ptr, ptr %11, align 8
  br label %125

124:                                              ; preds = %119
  br label %125

125:                                              ; preds = %124, %122
  %126 = phi ptr [ %123, %122 ], [ null, %124 ]
  store ptr %126, ptr %4, align 8
  br label %139

127:                                              ; preds = %116, %86, %74
  store i8 1, ptr %10, align 1
  br label %22, !llvm.loop !58

128:                                              ; preds = %22
  %129 = load i8, ptr %10, align 1
  %130 = icmp ne i8 %129, 0
  br i1 %130, label %131, label %136

131:                                              ; preds = %128
  %132 = load i8, ptr %9, align 1
  %133 = icmp ne i8 %132, 0
  br i1 %133, label %136, label %134

134:                                              ; preds = %131
  %135 = load ptr, ptr %8, align 8
  br label %137

136:                                              ; preds = %131, %128
  br label %137

137:                                              ; preds = %136, %134
  %138 = phi ptr [ %135, %134 ], [ null, %136 ]
  store ptr %138, ptr %4, align 8
  br label %139

139:                                              ; preds = %137, %125, %116, %85
  %140 = load ptr, ptr %4, align 8
  ret ptr %140

141:                                              ; preds = %116
  unreachable
}